; Function Attrs: nounwind uwtable
define noalias ptr @l_Array_forIn_x27Unsafe_loop___at___private_Lean_Meta_Tactic_Grind_Arith_CommRing_Proof_0__Lean_Meta_Grind_Arith_CommRing_Stepwise_withProofContext_go___spec__9___boxed(ptr noundef readonly captures(none) %0) local_unnamed_addr #1 {
  %2 = load ptr, ptr %0, align 8, !tbaa !11
  %3 = getelementptr inbounds nuw i8, ptr %0, i64 8
  %4 = load ptr, ptr %3, align 8, !tbaa !11
  %5 = getelementptr inbounds nuw i8, ptr %0, i64 16
  %6 = load ptr, ptr %5, align 8, !tbaa !11
  %7 = getelementptr inbounds nuw i8, ptr %0, i64 24
  %8 = load ptr, ptr %7, align 8, !tbaa !11
  %9 = getelementptr inbounds nuw i8, ptr %0, i64 32
  %10 = load ptr, ptr %9, align 8, !tbaa !11
  %11 = getelementptr inbounds nuw i8, ptr %0, i64 40
  %12 = load ptr, ptr %11, align 8, !tbaa !11
  %13 = getelementptr inbounds nuw i8, ptr %0, i64 48
  %14 = load ptr, ptr %13, align 8, !tbaa !11
  %15 = getelementptr inbounds nuw i8, ptr %0, i64 56
  %16 = load ptr, ptr %15, align 8, !tbaa !11
  %17 = getelementptr inbounds nuw i8, ptr %0, i64 64
  %18 = load ptr, ptr %17, align 8, !tbaa !11
  %19 = getelementptr inbounds nuw i8, ptr %0, i64 72
  %20 = load ptr, ptr %19, align 8, !tbaa !11
  %21 = getelementptr inbounds nuw i8, ptr %0, i64 80
  %22 = load ptr, ptr %21, align 8, !tbaa !11
  %23 = getelementptr inbounds nuw i8, ptr %0, i64 88
  %24 = load ptr, ptr %23, align 8, !tbaa !11
  %25 = getelementptr inbounds nuw i8, ptr %0, i64 96
  %26 = load ptr, ptr %25, align 8, !tbaa !11
  %27 = getelementptr inbounds nuw i8, ptr %0, i64 104
  %28 = load ptr, ptr %27, align 8, !tbaa !11
  %29 = getelementptr inbounds nuw i8, ptr %0, i64 112
  %30 = load ptr, ptr %29, align 8, !tbaa !11
  %31 = getelementptr inbounds nuw i8, ptr %0, i64 120
  %32 = load ptr, ptr %31, align 8, !tbaa !11
  %33 = getelementptr inbounds nuw i8, ptr %0, i64 128
  %34 = load ptr, ptr %33, align 8, !tbaa !11
  %35 = getelementptr inbounds nuw i8, ptr %0, i64 136
  %36 = load ptr, ptr %35, align 8, !tbaa !11
  %37 = getelementptr i8, ptr %14, i64 8
  %.val87 = load i64, ptr %37, align 8, !tbaa !15
  %38 = ptrtoint ptr %14 to i64
  %39 = and i64 %38, 1
  %.not = icmp eq i64 %39, 0
  br i1 %.not, label %40, label %lean_dec.exit62

40:                                               ; preds = %1
  %41 = load i32, ptr %14, align 4, !tbaa !6
  %42 = icmp sgt i32 %41, 1
  br i1 %42, label %43, label %45, !prof !5

43:                                               ; preds = %40
  %44 = add nsw i32 %41, -1
  store i32 %44, ptr %14, align 4, !tbaa !6
  br label %lean_dec.exit62

45:                                               ; preds = %40
  %.not.i = icmp eq i32 %41, 0
  br i1 %.not.i, label %lean_dec.exit62, label %46

46:                                               ; preds = %45
  tail call void @lean_dec_ref_cold(ptr noundef nonnull %14) #6
  br label %lean_dec.exit62

lean_dec.exit62:                                  ; preds = %46, %45, %43, %1
  %47 = getelementptr i8, ptr %16, i64 8
  %.val = load i64, ptr %47, align 8, !tbaa !15
  %48 = ptrtoint ptr %16 to i64
  %49 = and i64 %48, 1
  %.not88 = icmp eq i64 %49, 0
  br i1 %.not88, label %50, label %lean_dec.exit61

50:                                               ; preds = %lean_dec.exit62
  %51 = load i32, ptr %16, align 4, !tbaa !6
  %52 = icmp sgt i32 %51, 1
  br i1 %52, label %53, label %55, !prof !5

53:                                               ; preds = %50
  %54 = add nsw i32 %51, -1
  store i32 %54, ptr %16, align 4, !tbaa !6
  br label %lean_dec.exit61

55:                                               ; preds = %50
  %.not.i63 = icmp eq i32 %51, 0
  br i1 %.not.i63, label %lean_dec.exit61, label %56

56:                                               ; preds = %55
  tail call void @lean_dec_ref_cold(ptr noundef nonnull %16) #6
  br label %lean_dec.exit61

lean_dec.exit61:                                  ; preds = %56, %55, %53, %lean_dec.exit62
  %57 = tail call ptr @l_Array_forIn_x27Unsafe_loop___at___private_Lean_Meta_Tactic_Grind_Arith_CommRing_Proof_0__Lean_Meta_Grind_Arith_CommRing_Stepwise_withProofContext_go___spec__9(ptr noundef %2, ptr noundef %4, ptr noundef %6, ptr poison, ptr poison, ptr noundef %12, i64 noundef %.val87, i64 noundef %.val, ptr noundef %18, ptr poison, ptr poison, ptr poison, ptr poison, ptr poison, ptr poison, ptr poison, ptr poison, ptr noundef %36)
  %58 = ptrtoint ptr %34 to i64
  %59 = and i64 %58, 1
  %.not89 = icmp eq i64 %59, 0
  br i1 %.not89, label %60, label %lean_dec.exit60

60:                                               ; preds = %lean_dec.exit61
  %61 = load i32, ptr %34, align 4, !tbaa !6
  %62 = icmp sgt i32 %61, 1
  br i1 %62, label %63, label %65, !prof !5

63:                                               ; preds = %60
  %64 = add nsw i32 %61, -1
  store i32 %64, ptr %34, align 4, !tbaa !6
  br label %lean_dec.exit60

65:                                               ; preds = %60
  %.not.i65 = icmp eq i32 %61, 0
  br i1 %.not.i65, label %lean_dec.exit60, label %66

66:                                               ; preds = %65
  tail call void @lean_dec_ref_cold(ptr noundef nonnull %34) #6
  br label %lean_dec.exit60

lean_dec.exit60:                                  ; preds = %66, %65, %63, %lean_dec.exit61
  %67 = ptrtoint ptr %32 to i64
  %68 = and i64 %67, 1
  %.not90 = icmp eq i64 %68, 0
  br i1 %.not90, label %69, label %lean_dec.exit59

69:                                               ; preds = %lean_dec.exit60
  %70 = load i32, ptr %32, align 4, !tbaa !6
  %71 = icmp sgt i32 %70, 1
  br i1 %71, label %72, label %74, !prof !5

72:                                               ; preds = %69
  %73 = add nsw i32 %70, -1
  store i32 %73, ptr %32, align 4, !tbaa !6
  br label %lean_dec.exit59

74:                                               ; preds = %69
  %.not.i67 = icmp eq i32 %70, 0
  br i1 %.not.i67, label %lean_dec.exit59, label %75

75:                                               ; preds = %74
  tail call void @lean_dec_ref_cold(ptr noundef nonnull %32) #6
  br label %lean_dec.exit59

lean_dec.exit59:                                  ; preds = %75, %74, %72, %lean_dec.exit60
  %76 = ptrtoint ptr %30 to i64
  %77 = and i64 %76, 1
  %.not91 = icmp eq i64 %77, 0
  br i1 %.not91, label %78, label %lean_dec.exit58

78:                                               ; preds = %lean_dec.exit59
  %79 = load i32, ptr %30, align 4, !tbaa !6
  %80 = icmp sgt i32 %79, 1
  br i1 %80, label %81, label %83, !prof !5

81:                                               ; preds = %78
  %82 = add nsw i32 %79, -1
  store i32 %82, ptr %30, align 4, !tbaa !6
  br label %lean_dec.exit58

83:                                               ; preds = %78
  %.not.i69 = icmp eq i32 %79, 0
  br i1 %.not.i69, label %lean_dec.exit58, label %84

84:                                               ; preds = %83
  tail call void @lean_dec_ref_cold(ptr noundef nonnull %30) #6
  br label %lean_dec.exit58

lean_dec.exit58:                                  ; preds = %84, %83, %81, %lean_dec.exit59
  %85 = ptrtoint ptr %28 to i64
  %86 = and i64 %85, 1
  %.not92 = icmp eq i64 %86, 0
  br i1 %.not92, label %87, label %lean_dec.exit57

87:                                               ; preds = %lean_dec.exit58
  %88 = load i32, ptr %28, align 4, !tbaa !6
  %89 = icmp sgt i32 %88, 1
  br i1 %89, label %90, label %92, !prof !5

90:                                               ; preds = %87
  %91 = add nsw i32 %88, -1
  store i32 %91, ptr %28, align 4, !tbaa !6
  br label %lean_dec.exit57

92:                                               ; preds = %87
  %.not.i71 = icmp eq i32 %88, 0
  br i1 %.not.i71, label %lean_dec.exit57, label %93

93:                                               ; preds = %92
  tail call void @lean_dec_ref_cold(ptr noundef nonnull %28) #6
  br label %lean_dec.exit57

lean_dec.exit57:                                  ; preds = %93, %92, %90, %lean_dec.exit58
  %94 = ptrtoint ptr %26 to i64
  %95 = and i64 %94, 1
  %.not93 = icmp eq i64 %95, 0
  br i1 %.not93, label %96, label %lean_dec.exit56

96:                                               ; preds = %lean_dec.exit57
  %97 = load i32, ptr %26, align 4, !tbaa !6
  %98 = icmp sgt i32 %97, 1
  br i1 %98, label %99, label %101, !prof !5

99:                                               ; preds = %96
  %100 = add nsw i32 %97, -1
  store i32 %100, ptr %26, align 4, !tbaa !6
  br label %lean_dec.exit56

101:                                              ; preds = %96
  %.not.i73 = icmp eq i32 %97, 0
  br i1 %.not.i73, label %lean_dec.exit56, label %102

102:                                              ; preds = %101
  tail call void @lean_dec_ref_cold(ptr noundef nonnull %26) #6
  br label %lean_dec.exit56

lean_dec.exit56:                                  ; preds = %102, %101, %99, %lean_dec.exit57
  %103 = ptrtoint ptr %24 to i64
  %104 = and i64 %103, 1
  %.not94 = icmp eq i64 %104, 0
  br i1 %.not94, label %105, label %lean_dec.exit55

105:                                              ; preds = %lean_dec.exit56
  %106 = load i32, ptr %24, align 4, !tbaa !6
  %107 = icmp sgt i32 %106, 1
  br i1 %107, label %108, label %110, !prof !5

108:                                              ; preds = %105
  %109 = add nsw i32 %106, -1
  store i32 %109, ptr %24, align 4, !tbaa !6
  br label %lean_dec.exit55

110:                                              ; preds = %105
  %.not.i75 = icmp eq i32 %106, 0
  br i1 %.not.i75, label %lean_dec.exit55, label %111

111:                                              ; preds = %110
  tail call void @lean_dec_ref_cold(ptr noundef nonnull %24) #6
  br label %lean_dec.exit55

lean_dec.exit55:                                  ; preds = %111, %110, %108, %lean_dec.exit56
  %112 = ptrtoint ptr %22 to i64
  %113 = and i64 %112, 1
  %.not95 = icmp eq i64 %113, 0
  br i1 %.not95, label %114, label %lean_dec.exit54

114:                                              ; preds = %lean_dec.exit55
  %115 = load i32, ptr %22, align 4, !tbaa !6
  %116 = icmp sgt i32 %115, 1
  br i1 %116, label %117, label %119, !prof !5

117:                                              ; preds = %114
  %118 = add nsw i32 %115, -1
  store i32 %118, ptr %22, align 4, !tbaa !6
  br label %lean_dec.exit54

119:                                              ; preds = %114
  %.not.i77 = icmp eq i32 %115, 0
  br i1 %.not.i77, label %lean_dec.exit54, label %120

120:                                              ; preds = %119
  tail call void @lean_dec_ref_cold(ptr noundef nonnull %22) #6
  br label %lean_dec.exit54

lean_dec.exit54:                                  ; preds = %120, %119, %117, %lean_dec.exit55
  %121 = ptrtoint ptr %20 to i64
  %122 = and i64 %121, 1
  %.not96 = icmp eq i64 %122, 0
  br i1 %.not96, label %123, label %lean_dec.exit53

123:                                              ; preds = %lean_dec.exit54
  %124 = load i32, ptr %20, align 4, !tbaa !6
  %125 = icmp sgt i32 %124, 1
  br i1 %125, label %126, label %128, !prof !5

126:                                              ; preds = %123
  %127 = add nsw i32 %124, -1
  store i32 %127, ptr %20, align 4, !tbaa !6
  br label %lean_dec.exit53

128:                                              ; preds = %123
  %.not.i79 = icmp eq i32 %124, 0
  br i1 %.not.i79, label %lean_dec.exit53, label %129

129:                                              ; preds = %128
  tail call void @lean_dec_ref_cold(ptr noundef nonnull %20) #6
  br label %lean_dec.exit53

lean_dec.exit53:                                  ; preds = %129, %128, %126, %lean_dec.exit54
  %130 = ptrtoint ptr %12 to i64
  %131 = and i64 %130, 1
  %.not97 = icmp eq i64 %131, 0
  br i1 %.not97, label %132, label %lean_dec.exit52

132:                                              ; preds = %lean_dec.exit53
  %133 = load i32, ptr %12, align 4, !tbaa !6
  %134 = icmp sgt i32 %133, 1
  br i1 %134, label %135, label %137, !prof !5

135:                                              ; preds = %132
  %136 = add nsw i32 %133, -1
  store i32 %136, ptr %12, align 4, !tbaa !6
  br label %lean_dec.exit52

137:                                              ; preds = %132
  %.not.i81 = icmp eq i32 %133, 0
  br i1 %.not.i81, label %lean_dec.exit52, label %138

138:                                              ; preds = %137
  tail call void @lean_dec_ref_cold(ptr noundef nonnull %12) #6
  br label %lean_dec.exit52

lean_dec.exit52:                                  ; preds = %138, %137, %135, %lean_dec.exit53
  %139 = ptrtoint ptr %10 to i64
  %140 = and i64 %139, 1
  %.not98 = icmp eq i64 %140, 0
  br i1 %.not98, label %141, label %lean_dec.exit51

141:                                              ; preds = %lean_dec.exit52
  %142 = load i32, ptr %10, align 4, !tbaa !6
  %143 = icmp sgt i32 %142, 1
  br i1 %143, label %144, label %146, !prof !5

144:                                              ; preds = %141
  %145 = add nsw i32 %142, -1
  store i32 %145, ptr %10, align 4, !tbaa !6
  br label %lean_dec.exit51

146:                                              ; preds = %141
  %.not.i83 = icmp eq i32 %142, 0
  br i1 %.not.i83, label %lean_dec.exit51, label %147

147:                                              ; preds = %146
  tail call void @lean_dec_ref_cold(ptr noundef nonnull %10) #6
  br label %lean_dec.exit51

lean_dec.exit51:                                  ; preds = %147, %146, %144, %lean_dec.exit52
  %148 = ptrtoint ptr %8 to i64
  %149 = and i64 %148, 1
  %.not99 = icmp eq i64 %149, 0
  br i1 %.not99, label %150, label %lean_dec.exit

150:                                              ; preds = %lean_dec.exit51
  %151 = load i32, ptr %8, align 4, !tbaa !6
  %152 = icmp sgt i32 %151, 1
  br i1 %152, label %153, label %155, !prof !5

153:                                              ; preds = %150
  %154 = add nsw i32 %151, -1
  store i32 %154, ptr %8, align 4, !tbaa !6
  br label %lean_dec.exit

155:                                              ; preds = %150
  %.not.i85 = icmp eq i32 %151, 0
  br i1 %.not.i85, label %lean_dec.exit, label %156

156:                                              ; preds = %155
  tail call void @lean_dec_ref_cold(ptr noundef nonnull %8) #6
  br label %lean_dec.exit

lean_dec.exit:                                    ; preds = %156, %155, %153, %lean_dec.exit51
  ret ptr %57
}